target datalayout = "e-m:e-p270:32:32-p271:32:32-p272:64:64-i64:64-i128:128-f80:128-n8:16:32:64-S128"
target triple = "x86_64-pc-linux-gnu"

%struct.WalWriteMethod = type { ptr, i32, i32, i8, ptr, i32 }
%struct.DirectoryMethodFile = type { %struct.Walfile, i32, ptr, ptr, ptr }
%struct.Walfile = type { ptr, i64, ptr }

; Function Attrs: nounwind uwtable
define internal i64 @dir_write(ptr noundef %0, ptr noundef %1, i64 noundef %2) #0 {
  %4 = alloca ptr, align 8
  %5 = alloca ptr, align 8
  %6 = alloca i64, align 8
  %7 = alloca i64, align 8
  %8 = alloca ptr, align 8
  store ptr %0, ptr %4, align 8
  store ptr %1, ptr %5, align 8
  store i64 %2, ptr %6, align 8
  call void @llvm.lifetime.start.p0(i64 8, ptr %7) #9
  call void @llvm.lifetime.start.p0(i64 8, ptr %8) #9
  %9 = load ptr, ptr %4, align 8
  store ptr %9, ptr %8, align 8
  %10 = load ptr, ptr %4, align 8
  %11 = getelementptr inbounds nuw %struct.Walfile, ptr %10, i32 0, i32 0
  %12 = load ptr, ptr %11, align 8
  %13 = getelementptr inbounds nuw %struct.WalWriteMethod, ptr %12, i32 0, i32 4
  store ptr null, ptr %13, align 8
  %14 = load ptr, ptr %4, align 8
  %15 = getelementptr inbounds nuw %struct.Walfile, ptr %14, i32 0, i32 0
  %16 = load ptr, ptr %15, align 8
  %17 = getelementptr inbounds nuw %struct.WalWriteMethod, ptr %16, i32 0, i32 5
  store i32 0, ptr %17, align 8
  %18 = load ptr, ptr %4, align 8
  %19 = getelementptr inbounds nuw %struct.Walfile, ptr %18, i32 0, i32 0
  %20 = load ptr, ptr %19, align 8
  %21 = getelementptr inbounds nuw %struct.WalWriteMethod, ptr %20, i32 0, i32 1
  %22 = load i32, ptr %21, align 8
  %23 = icmp eq i32 %22, 1
  br i1 %23, label %24, label %52

24:                                               ; preds = %3
  %25 = call ptr @__errno_location() #11
  store i32 0, ptr %25, align 4
  %26 = load ptr, ptr %8, align 8
  %27 = getelementptr inbounds nuw %struct.DirectoryMethodFile, ptr %26, i32 0, i32 4
  %28 = load ptr, ptr %27, align 8
  %29 = load ptr, ptr %5, align 8
  %30 = load i64, ptr %6, align 8
  %31 = trunc i64 %30 to i32
  %32 = call i32 @gzwrite(ptr noundef %28, ptr noundef %29, i32 noundef %31)
  %33 = sext i32 %32 to i64
  store i64 %33, ptr %7, align 8
  %34 = load i64, ptr %7, align 8
  %35 = load i64, ptr %6, align 8
  %36 = icmp ne i64 %34, %35
  br i1 %36, label %37, label %51

37:                                               ; preds = %24
  %38 = call ptr @__errno_location() #11
  %39 = load i32, ptr %38, align 4
  %40 = icmp ne i32 %39, 0
  br i1 %40, label %41, label %44

41:                                               ; preds = %37
  %42 = call ptr @__errno_location() #11
  %43 = load i32, ptr %42, align 4
  br label %45

44:                                               ; preds = %37
  br label %45

45:                                               ; preds = %44, %41
  %46 = phi i32 [ %43, %41 ], [ 28, %44 ]
  %47 = load ptr, ptr %4, align 8
  %48 = getelementptr inbounds nuw %struct.Walfile, ptr %47, i32 0, i32 0
  %49 = load ptr, ptr %48, align 8
  %50 = getelementptr inbounds nuw %struct.WalWriteMethod, ptr %49, i32 0, i32 5
  store i32 %46, ptr %50, align 8
  br label %51

51:                                               ; preds = %45, %24
  br label %78

52:                                               ; preds = %3
  %53 = call ptr @__errno_location() #11
  store i32 0, ptr %53, align 4
  %54 = load ptr, ptr %8, align 8
  %55 = getelementptr inbounds nuw %struct.DirectoryMethodFile, ptr %54, i32 0, i32 1
  %56 = load i32, ptr %55, align 8
  %57 = load ptr, ptr %5, align 8
  %58 = load i64, ptr %6, align 8
  %59 = call i64 @write(i32 noundef %56, ptr noundef %57, i64 noundef %58)
  store i64 %59, ptr %7, align 8
  %60 = load i64, ptr %7, align 8
  %61 = load i64, ptr %6, align 8
  %62 = icmp ne i64 %60, %61
  br i1 %62, label %63, label %77

63:                                               ; preds = %52
  %64 = call ptr @__errno_location() #11
  %65 = load i32, ptr %64, align 4
  %66 = icmp ne i32 %65, 0
  br i1 %66, label %67, label %70

67:                                               ; preds = %63
  %68 = call ptr @__errno_location() #11
  %69 = load i32, ptr %68, align 4
  br label %71

70:                                               ; preds = %63
  br label %71

71:                                               ; preds = %70, %67
  %72 = phi i32 [ %69, %67 ], [ 28, %70 ]
  %73 = load ptr, ptr %4, align 8
  %74 = getelementptr inbounds nuw %struct.Walfile, ptr %73, i32 0, i32 0
  %75 = load ptr, ptr %74, align 8
  %76 = getelementptr inbounds nuw %struct.WalWriteMethod, ptr %75, i32 0, i32 5
  store i32 %72, ptr %76, align 8
  br label %77

77:                                               ; preds = %71, %52
  br label %78

78:                                               ; preds = %77, %51
  %79 = load i64, ptr %7, align 8
  %80 = icmp sgt i64 %79, 0
  br i1 %80, label %81, label %88

81:                                               ; preds = %78
  %82 = load i64, ptr %7, align 8
  %83 = load ptr, ptr %8, align 8
  %84 = getelementptr inbounds nuw %struct.DirectoryMethodFile, ptr %83, i32 0, i32 0
  %85 = getelementptr inbounds nuw %struct.Walfile, ptr %84, i32 0, i32 1
  %86 = load i64, ptr %85, align 8
  %87 = add i64 %86, %82
  store i64 %87, ptr %85, align 8
  br label %88

88:                                               ; preds = %81, %78
  %89 = load i64, ptr %7, align 8
  call void @llvm.lifetime.end.p0(i64 8, ptr %8) #9
  call void @llvm.lifetime.end.p0(i64 8, ptr %7) #9
  ret i64 %89
}