; Function Attrs: nounwind uwtable
define internal i64 @dir_write(ptr noundef captures(none) %0, ptr noundef %1, i64 noundef %2) #0 {
  %4 = load ptr, ptr %0, align 8
  %5 = getelementptr inbounds nuw i8, ptr %4, i64 24
  store ptr null, ptr %5, align 8
  %6 = load ptr, ptr %0, align 8
  %7 = getelementptr inbounds nuw i8, ptr %6, i64 32
  store i32 0, ptr %7, align 8
  %8 = load ptr, ptr %0, align 8
  %9 = getelementptr inbounds nuw i8, ptr %8, i64 8
  %10 = load i32, ptr %9, align 8
  %11 = icmp eq i32 %10, 1
  %12 = tail call ptr @__errno_location() #14
  store i32 0, ptr %12, align 4
  br i1 %11, label %13, label %19

13:                                               ; preds = %3
  %14 = getelementptr inbounds nuw i8, ptr %0, i64 48
  %15 = load ptr, ptr %14, align 8
  %16 = trunc i64 %2 to i32
  %17 = tail call i32 @gzwrite(ptr noundef %15, ptr noundef %1, i32 noundef %16) #12
  %18 = sext i32 %17 to i64
  %.not25 = icmp eq i64 %2, %18
  br i1 %.not25, label %26, label %.sink.split

19:                                               ; preds = %3
  %20 = getelementptr inbounds nuw i8, ptr %0, i64 24
  %21 = load i32, ptr %20, align 8
  %22 = tail call i64 @write(i32 noundef %21, ptr noundef %1, i64 noundef %2) #12
  %.not = icmp eq i64 %22, %2
  br i1 %.not, label %26, label %.sink.split

.sink.split:                                      ; preds = %19, %13
  %.0.ph = phi i64 [ %18, %13 ], [ %22, %19 ]
  %23 = load i32, ptr %12, align 4
  %.not24 = icmp eq i32 %23, 0
  %spec.select27 = select i1 %.not24, i32 28, i32 %23
  %24 = load ptr, ptr %0, align 8
  %25 = getelementptr inbounds nuw i8, ptr %24, i64 32
  store i32 %spec.select27, ptr %25, align 8
  br label %26

26:                                               ; preds = %.sink.split, %19, %13
  %.0 = phi i64 [ %2, %13 ], [ %2, %19 ], [ %.0.ph, %.sink.split ]
  %27 = icmp sgt i64 %.0, 0
  br i1 %27, label %28, label %32

28:                                               ; preds = %26
  %29 = getelementptr inbounds nuw i8, ptr %0, i64 8
  %30 = load i64, ptr %29, align 8
  %31 = add i64 %30, %.0
  store i64 %31, ptr %29, align 8
  br label %32

32:                                               ; preds = %28, %26
  ret i64 %.0
}